Certificate:
    Data:
        Version: 3 (0x2)
        Serial Number:
            53:e9:5c:da:62:d5:77:a2:68:46:36:ae:3c:a7:b2:e4
    Signature Algorithm: sha256WithRSAEncryption
        Issuer: O=robotics.int-rt.corp.doosan.com, CN=robotics.int-rt.corp.doosan.com Intermed_CA
        Validity
            Not Before: Oct 16 10:53:12 2017 GMT
            Not After : Oct 16 10:53:12 2019 GMT
        Subject: O=robotics.int-rt.corp.doosan.com, CN=robotics.int-rt.corp.doosan.com
        Subject Public Key Info:
            Public Key Algorithm: rsaEncryption
                Public-Key: (3072 bit)
                Modulus:
                    00:9e:55:e6:e3:c6:b7:f3:68:58:aa:d6:35:a4:f2:
                    18:ff:03:c2:0b:2d:72:36:8f:e8:0b:45:55:48:6b:
                    64:58:a2:e2:83:ce:ac:88:8b:a2:23:50:63:05:0f:
                    82:7b:54:a4:3f:87:b5:c1:6e:78:d4:2f:19:c2:2a:
                    54:dc:e3:cb:43:04:fa:fb:ff:d8:38:e3:0d:a9:45:
                    06:f9:31:35:21:3a:de:3d:9a:e0:f8:72:f4:d2:2a:
                    39:7d:a3:b7:58:d2:1a:e3:79:2f:1c:50:ea:d7:74:
                    2f:33:a8:50:21:2e:b7:40:b2:21:a8:0d:60:29:4b:
                    f0:a8:a9:8b:55:b8:18:1a:80:bd:ff:9d:0d:37:c4:
                    6b:7f:98:a7:3c:83:45:e1:60:7f:67:88:c4:8b:9d:
                    37:d3:20:9e:65:71:46:b1:e2:41:b3:b1:38:92:f7:
                    53:04:c4:ae:87:94:a9:72:54:a7:13:c1:59:df:9f:
                    a8:01:20:b9:e7:80:dc:d8:95:ea:36:cf:a4:47:41:
                    4d:65:3a:49:04:14:2d:31:ba:87:dd:6c:f4:9d:1b:
                    59:c2:08:04:3f:cb:66:d7:a3:fe:00:9f:ab:3e:ce:
                    a1:e8:d4:aa:f3:60:24:cc:97:25:ba:de:80:b2:c8:
                    a1:fb:84:ec:fa:f8:4c:0c:14:09:78:6a:1e:e5:aa:
                    2d:94:ee:a9:49:b7:df:24:0c:1d:90:05:a0:ad:3c:
                    fc:ad:c5:e9:19:b5:de:2b:12:01:60:dc:a8:77:86:
                    de:d9:77:c3:9b:6d:76:ad:3c:1e:75:0f:39:09:e4:
                    45:04:b1:cd:de:45:27:08:3f:8c:37:68:8c:45:7a:
                    4c:1d:ac:dd:90:4d:b5:fa:0d:82:42:2d:b7:4c:3f:
                    ba:de:5b:12:91:52:bd:0a:07:5d:5b:e5:61:8e:fe:
                    87:5e:46:e1:5b:7d:bf:d4:c5:0a:73:9a:32:66:d2:
                    0b:1e:13:e0:d0:de:de:77:05:c0:76:3e:fc:c5:49:
                    a3:73:f1:e1:c7:86:4e:53:ac:3d
                Exponent: 65537 (0x10001)
        X509v3 extensions:
            X509v3 Basic Constraints: 
                CA:FALSE
            X509v3 Key Usage: critical
                Digital Signature, Key Encipherment
            X509v3 Extended Key Usage: critical
                TLS Web Server Authentication, TLS Web Client Authentication
            X509v3 Subject Key Identifier: 
                8B:45:D4:51:DA:83:80:95:29:46:BB:90:57:F9:61:29:65:35:A0:71
            X509v3 Authority Key Identifier: 
                keyid:A0:2A:BA:FF:46:85:07:5C:08:A6:FF:CE:4C:42:20:6D:3F:69:8B:78

            X509v3 Issuer Alternative Name: 
                URI:https://robotics.int-rt.corp.doosan.com, email:Cert@doosan.com
            Authority Information Access: 
                CA Issuers - URI:http://ca.int-rt.corp.doosan.com/certs/doosan.com_Intermediate_Certification_Authority.cert.pem

            X509v3 CRL Distribution Points: 

                Full Name:
                  URI:http://ca.int-rt.corp.doosan.com/crl/doosan.com_Intermediate_Certification_Authority.crl

            X509v3 Subject Alternative Name: 
                DNS:robotics.int-rt.corp.doosan.com, DNS:*.robotics.int-rt.corp.doosan.com
    Signature Algorithm: sha256WithRSAEncryption
         35:61:1c:22:c8:73:89:f6:ff:cc:57:56:5d:51:a2:18:4d:c1:
         2e:ac:d4:ca:4f:03:6b:18:23:55:d4:3f:a3:41:d2:dd:36:37:
         da:27:df:f3:9f:33:c7:b1:58:94:82:2d:69:d3:27:a2:41:5f:
         f6:7a:87:3a:d3:23:6e:23:93:94:e6:00:51:21:56:be:c1:7a:
         36:01:27:4d:ca:7a:2b:ee:82:08:28:b6:41:b0:46:a2:f8:91:
         af:93:78:f5:78:ff:d3:46:f6:96:77:ee:af:ac:5f:e2:be:57:
         d1:be:16:33:8a:7e:38:cd:f4:b4:ba:5e:b6:e1:9c:6e:e3:27:
         6b:52:cc:7f:43:c0:68:ae:b5:cd:94:2f:40:c3:bf:4a:ff:25:
         a6:a2:8f:bf:98:eb:e2:8c:38:cc:16:07:4b:e0:bf:7d:94:b4:
         8b:c3:e2:1c:b4:e3:11:01:0d:f1:55:00:bb:57:44:2b:6c:60:
         81:86:0e:ac:25:95:24:c5:86:0f:9f:7d:15:ba:07:c1:8d:4e:
         e6:5d:3f:7c:bc:47:3d:a7:4d:bb:5e:60:48:1d:05:1e:9e:ed:
         17:97:f0:c0:63:f2:73:47:b1:f5:99:07:2c:31:2e:40:98:38:
         2b:e2:b2:13:e2:34:fe:b7:ce:33:67:97:6c:76:7d:b4:9c:a1:
         25:49:66:72:f4:4b:fb:cd:cf:a3:34:11:91:d5:f8:58:c6:8a:
         24:66:fd:c1:bb:59:fb:a1:3a:8a:eb:b1:5a:8a:45:2b:bc:2a:
         db:b0:25:f0:f6:ca:a7:0e:f8:f1:d9:53:73:e3:a6:5f:25:79:
         b9:82:41:17:4c:cf:71:07:b9:58:bd:f2:09:87:d2:9a:15:c8:
         ee:d3:a1:db:7f:28:b7:7e:cf:b1:8b:8b:3b:80:4f:ed:3f:19:
         19:08:48:c8:6e:0f:e5:5a:64:e7:6e:d1:cd:d0:29:68:c3:48:
         b3:f8:f5:22:1e:86:65:80:ee:ea:ce:bf:b3:46:fc:9c:9f:d0:
         d2:b1:80:c6:c6:c9
-----BEGIN CERTIFICATE-----
MIIGPTCCBKWgAwIBAgIQU+lc2mLVd6JoRjauPKey5DANBgkqhkiG9w0BAQsFADBg
MSgwJgYDVQQKDB9yb2JvdGljcy5pbnQtcnQuY29ycC5kb29zYW4uY29tMTQwMgYD
VQQDDCtyb2JvdGljcy5pbnQtcnQuY29ycC5kb29zYW4uY29tIEludGVybWVkX0NB
MB4XDTE3MTAxNjEwNTMxMloXDTE5MTAxNjEwNTMxMlowVDEoMCYGA1UECgwfcm9i
b3RpY3MuaW50LXJ0LmNvcnAuZG9vc2FuLmNvbTEoMCYGA1UEAwwfcm9ib3RpY3Mu
aW50LXJ0LmNvcnAuZG9vc2FuLmNvbTCCAaIwDQYJKoZIhvcNAQEBBQADggGPADCC
AYoCggGBAJ5V5uPGt/NoWKrWNaTyGP8DwgstcjaP6AtFVUhrZFii4oPOrIiLoiNQ
YwUPgntUpD+HtcFueNQvGcIqVNzjy0ME+vv/2DjjDalFBvkxNSE63j2a4Phy9NIq
OX2jt1jSGuN5LxxQ6td0LzOoUCEut0CyIagNYClL8Kipi1W4GBqAvf+dDTfEa3+Y
pzyDReFgf2eIxIudN9MgnmVxRrHiQbOxOJL3UwTEroeUqXJUpxPBWd+fqAEgueeA
3NiV6jbPpEdBTWU6SQQULTG6h91s9J0bWcIIBD/LZtej/gCfqz7OoejUqvNgJMyX
JbregLLIofuE7Pr4TAwUCXhqHuWqLZTuqUm33yQMHZAFoK08/K3F6Rm13isSAWDc
qHeG3tl3w5ttdq08HnUPOQnkRQSxzd5FJwg/jDdojEV6TB2s3ZBNtfoNgkItt0w/
ut5bEpFSvQoHXVvlYY7+h15G4Vt9v9TFCnOaMmbSCx4T4NDe3ncFwHY+/MVJo3Px
4ceGTlOsPQIDAQABo4IB/TCCAfkwCQYDVR0TBAIwADAOBgNVHQ8BAf8EBAMCBaAw
IAYDVR0lAQH/BBYwFAYIKwYBBQUHAwEGCCsGAQUFBwMCMB0GA1UdDgQWBBSLRdRR
2oOAlSlGu5BX+WEpZTWgcTAfBgNVHSMEGDAWgBSgKrr/RoUHXAim/85MQiBtP2mL
eDBDBgNVHRIEPDA6hidodHRwczovL3JvYm90aWNzLmludC1ydC5jb3JwLmRvb3Nh
bi5jb22BD0NlcnRAZG9vc2FuLmNvbTB7BggrBgEFBQcBAQRvMG0wawYIKwYBBQUH
MAKGX2h0dHA6Ly9jYS5pbnQtcnQuY29ycC5kb29zYW4uY29tL2NlcnRzL2Rvb3Nh
bi5jb21fSW50ZXJtZWRpYXRlX0NlcnRpZmljYXRpb25fQXV0aG9yaXR5LmNlcnQu
cGVtMGkGA1UdHwRiMGAwXqBcoFqGWGh0dHA6Ly9jYS5pbnQtcnQuY29ycC5kb29z
YW4uY29tL2NybC9kb29zYW4uY29tX0ludGVybWVkaWF0ZV9DZXJ0aWZpY2F0aW9u
X0F1dGhvcml0eS5jcmwwTQYDVR0RBEYwRIIfcm9ib3RpY3MuaW50LXJ0LmNvcnAu
ZG9vc2FuLmNvbYIhKi5yb2JvdGljcy5pbnQtcnQuY29ycC5kb29zYW4uY29tMA0G
CSqGSIb3DQEBCwUAA4IBgQA1YRwiyHOJ9v/MV1ZdUaIYTcEurNTKTwNrGCNV1D+j
QdLdNjfaJ9/znzPHsViUgi1p0yeiQV/2eoc60yNuI5OU5gBRIVa+wXo2ASdNynor
7oIIKLZBsEai+JGvk3j1eP/TRvaWd+6vrF/ivlfRvhYzin44zfS0ul624Zxu4ydr
Usx/Q8BorrXNlC9Aw79K/yWmoo+/mOvijDjMFgdL4L99lLSLw+IctOMRAQ3xVQC7
V0QrbGCBhg6sJZUkxYYPn30VugfBjU7mXT98vEc9p027XmBIHQUenu0Xl/DAY/Jz
R7H1mQcsMS5AmDgr4rIT4jT+t84zZ5dsdn20nKElSWZy9Ev7zc+jNBGR1fhYxook
Zv3Bu1n7oTqK67FaikUrvCrbsCXw9sqnDvjx2VNz46ZfJXm5gkEXTM9xB7lYvfIJ
h9KaFcju06Hbfyi3fs+xi4s7gE/tPxkZCEjIbg/lWmTnbtHN0Clow0iz+PUiHoZl
gO7qzr+zRvycn9DSsYDGxsk=
-----END CERTIFICATE-----
