Certificate:
    Data:
        Version: 3 (0x2)
        Serial Number:
            4d:6a:27:e7:75:16:79:5b:c5:43:94:05:65:f5:1c:e9
    Signature Algorithm: sha256WithRSAEncryption
        Issuer: O=robotics.int-rt.corp.doosan.com, CN=robotics.int-rt.corp.doosan.com Root Certification Authority
        Validity
            Not Before: Oct 15 00:00:00 2017 GMT
            Not After : Oct 17 00:00:00 2027 GMT
        Subject: O=robotics.int-rt.corp.doosan.com, CN=robotics.int-rt.corp.doosan.com Root Certification Authority
        Subject Public Key Info:
            Public Key Algorithm: rsaEncryption
                Public-Key: (4096 bit)
                Modulus:
                    00:e6:1b:f8:01:d4:ac:83:15:38:c6:e0:42:68:b4:
                    c7:50:8d:bc:25:7d:8b:b2:4d:80:bf:13:70:df:15:
                    34:0c:4c:25:76:29:d5:f7:d7:a3:71:9d:a1:32:02:
                    44:31:52:25:4e:07:31:a7:34:6e:55:a7:97:05:2e:
                    cb:48:bd:41:54:15:86:11:47:e2:2e:f0:1f:00:64:
                    52:e4:02:ac:34:ad:2e:ba:d8:c5:d5:0b:2b:30:e3:
                    8c:66:60:be:56:d7:39:03:9e:92:a2:54:3c:8b:d4:
                    84:78:d3:e9:86:3e:8d:a4:c2:24:ad:68:df:74:c9:
                    e6:a8:6d:46:0e:77:ee:75:cd:27:5a:3f:32:b6:07:
                    e0:8a:05:9e:67:23:e4:fa:8c:dc:49:31:fd:6c:bf:
                    95:63:d7:81:c9:0c:ab:5b:34:10:40:d7:2c:a8:b5:
                    9d:1a:ab:eb:4e:28:ec:f5:7c:be:55:63:ba:55:06:
                    22:30:73:47:f1:50:44:66:bb:a1:bf:7e:80:c6:df:
                    ba:ba:08:3f:00:cd:0f:c8:f0:e0:7c:55:9e:63:ec:
                    7c:72:7d:ce:06:34:30:60:71:0d:22:80:24:15:d0:
                    6c:86:b7:17:c6:6b:15:51:09:21:a2:74:a8:8c:12:
                    a3:90:45:13:fd:c2:86:0b:5c:32:19:69:d7:0e:78:
                    5a:4b:98:4c:55:ec:a8:08:b0:02:52:5c:fd:73:cd:
                    b5:d1:78:11:81:dd:27:09:e5:01:6e:41:04:8e:57:
                    2b:a3:62:bd:c4:d6:98:fb:6c:83:9b:6c:10:30:1c:
                    0e:21:10:50:ac:2e:38:4d:dc:95:ac:04:80:de:0c:
                    6f:00:f3:65:18:e5:f5:e2:3f:6a:6b:6b:0e:1b:ab:
                    a1:00:eb:2c:1c:e8:dd:7b:a7:69:a5:3b:55:2d:d0:
                    8e:50:7c:ec:f4:ac:84:ea:a9:9d:71:b7:c7:4a:a4:
                    c2:8c:71:70:ff:92:da:e1:58:35:77:54:7b:23:cd:
                    c5:38:ad:0d:69:85:22:80:98:d4:5c:0d:4d:11:f1:
                    84:5a:36:74:a4:04:3a:2b:de:dc:65:58:a5:8e:c9:
                    45:d8:61:64:6b:07:c0:47:47:7f:55:4a:38:14:8e:
                    1a:dc:cd:10:68:97:d5:fc:d7:46:0e:f5:61:84:a8:
                    25:a7:91:73:07:9f:00:2c:c4:96:ba:98:b2:b0:50:
                    d1:0e:71:23:e3:82:b0:07:42:93:86:ea:7f:67:f1:
                    df:ff:01:a7:07:9e:67:1a:76:0f:e4:b5:90:22:ec:
                    16:07:a0:e8:5f:ed:63:a3:61:cc:5f:d2:e4:8e:d9:
                    e7:20:94:0f:63:d8:eb:1a:bc:0f:e8:e8:4e:85:57:
                    0a:5d:8d
                Exponent: 65537 (0x10001)
        X509v3 extensions:
            X509v3 Basic Constraints: critical
                CA:TRUE
            X509v3 Key Usage: critical
                Certificate Sign, CRL Sign
            X509v3 Subject Key Identifier: 
                C4:ED:72:40:B7:D3:2B:C6:A6:27:39:3F:FB:5B:C4:9A:08:BE:18:82
            X509v3 Subject Alternative Name: 
                URI:https://robotics.int-rt.corp.doosan.com, email:Cert@doosan.com
            X509v3 Authority Key Identifier: 
                keyid:C4:ED:72:40:B7:D3:2B:C6:A6:27:39:3F:FB:5B:C4:9A:08:BE:18:82

            X509v3 Issuer Alternative Name: 
                URI:https://robotics.int-rt.corp.doosan.com, email:Cert@doosan.com
            Authority Information Access: 
                CA Issuers - URI:http://ca.int-rt.corp.doosan.com/certs/doosan.com_Root_Certification_Authority.cert.pem

            X509v3 CRL Distribution Points: 

                Full Name:
                  URI:http://ca.int-rt.corp.doosan.com/crl/doosan.com_Root_Certification_Authority.crl

    Signature Algorithm: sha256WithRSAEncryption
         a8:46:b3:97:64:73:87:4c:a6:09:72:b2:c2:20:07:18:90:d5:
         96:56:7c:73:29:cd:87:31:9e:6e:7a:5d:f2:96:2d:5e:0e:e2:
         3d:7a:b3:68:18:5c:b8:e2:3c:bc:4d:d5:25:89:3d:e9:96:cb:
         e4:fa:c3:36:6b:0e:59:3f:dd:de:ce:ec:28:31:2e:d7:59:1e:
         bd:dc:03:c6:32:85:8f:24:5b:c4:e2:df:80:b3:c0:8b:9e:1f:
         db:e3:57:02:e1:d5:c2:33:e2:bd:9d:22:8a:0f:15:80:48:74:
         67:5a:7f:6d:1f:b0:0a:d0:b6:54:6e:d6:24:95:f7:6d:d5:d3:
         e5:b5:36:d0:ab:13:50:e2:bc:0e:df:c2:d3:c3:55:7f:4f:ab:
         42:fc:9a:ec:a2:a2:9d:a6:c4:ab:70:7b:36:21:7a:3f:b0:7b:
         16:f1:34:b1:36:8e:74:2c:ae:23:41:34:5a:72:bc:28:83:85:
         2f:f7:07:4d:3d:fc:e1:25:3f:bb:ad:18:99:06:0b:b6:11:aa:
         5d:f8:b2:cd:6b:dd:d1:b1:f6:55:aa:c7:b3:30:d4:60:ab:ec:
         fc:dd:8e:dc:2f:3d:06:be:16:75:a1:a6:51:8e:51:7e:13:3b:
         62:6e:a0:92:9e:bf:85:4b:e4:ef:c0:19:d7:fb:d6:48:6f:69:
         be:01:18:1e:42:6d:45:8a:3c:91:1d:77:d4:d3:42:fd:08:a8:
         ce:2e:72:c3:47:9b:5a:1f:b4:4a:4b:75:06:d2:fa:ac:b4:11:
         ba:bd:c9:e8:72:95:9a:4e:c4:ba:ec:eb:da:88:70:ef:a3:9a:
         81:22:f8:a9:23:1e:24:26:36:2f:77:28:e4:6a:20:1e:1c:ff:
         a8:e1:43:55:a3:1e:ac:12:1f:21:2b:cf:6a:62:51:09:b5:4b:
         bb:8d:55:60:bb:80:b9:41:11:94:e4:fa:8a:96:51:69:b6:2c:
         2b:aa:0b:04:c7:3f:e4:79:fa:04:43:8c:d8:7e:e7:b1:63:6e:
         00:86:ad:f3:11:91:0d:00:54:68:2e:9e:5e:e8:d3:62:9f:8d:
         ef:c5:e1:0d:7f:75:e6:fc:ae:ea:92:04:49:b4:4b:0a:35:ca:
         dc:df:da:4d:27:37:fc:09:7b:a5:f4:c8:58:ff:38:2e:f8:69:
         d2:f9:ba:2e:0b:ae:f7:70:eb:f2:36:d9:9b:68:79:e6:9f:30:
         f2:98:e6:51:94:18:f5:f4:14:a7:04:77:f9:46:7e:e4:7d:24:
         01:b8:b0:b0:d6:49:0b:c2:1a:58:97:93:5e:79:75:36:c7:ac:
         74:ea:3d:f8:31:19:d5:b1:4d:69:a1:3e:68:9d:86:cd:ec:43:
         37:be:1e:29:8b:bd:e1:07
-----BEGIN CERTIFICATE-----
MIIHNTCCBR2gAwIBAgIQTWon53UWeVvFQ5QFZfUc6TANBgkqhkiG9w0BAQsFADBx
MSgwJgYDVQQKDB9yb2JvdGljcy5pbnQtcnQuY29ycC5kb29zYW4uY29tMUUwQwYD
VQQDDDxyb2JvdGljcy5pbnQtcnQuY29ycC5kb29zYW4uY29tIFJvb3QgQ2VydGlm
aWNhdGlvbiBBdXRob3JpdHkwHhcNMTcxMDE1MDAwMDAwWhcNMjcxMDE3MDAwMDAw
WjBxMSgwJgYDVQQKDB9yb2JvdGljcy5pbnQtcnQuY29ycC5kb29zYW4uY29tMUUw
QwYDVQQDDDxyb2JvdGljcy5pbnQtcnQuY29ycC5kb29zYW4uY29tIFJvb3QgQ2Vy
dGlmaWNhdGlvbiBBdXRob3JpdHkwggIiMA0GCSqGSIb3DQEBAQUAA4ICDwAwggIK
AoICAQDmG/gB1KyDFTjG4EJotMdQjbwlfYuyTYC/E3DfFTQMTCV2KdX316NxnaEy
AkQxUiVOBzGnNG5Vp5cFLstIvUFUFYYRR+Iu8B8AZFLkAqw0rS662MXVCysw44xm
YL5W1zkDnpKiVDyL1IR40+mGPo2kwiStaN90yeaobUYOd+51zSdaPzK2B+CKBZ5n
I+T6jNxJMf1sv5Vj14HJDKtbNBBA1yyotZ0aq+tOKOz1fL5VY7pVBiIwc0fxUERm
u6G/foDG37q6CD8AzQ/I8OB8VZ5j7Hxyfc4GNDBgcQ0igCQV0GyGtxfGaxVRCSGi
dKiMEqOQRRP9woYLXDIZadcOeFpLmExV7KgIsAJSXP1zzbXReBGB3ScJ5QFuQQSO
VyujYr3E1pj7bIObbBAwHA4hEFCsLjhN3JWsBIDeDG8A82UY5fXiP2praw4bq6EA
6ywc6N17p2mlO1Ut0I5QfOz0rITqqZ1xt8dKpMKMcXD/ktrhWDV3VHsjzcU4rQ1p
hSKAmNRcDU0R8YRaNnSkBDor3txlWKWOyUXYYWRrB8BHR39VSjgUjhrczRBol9X8
10YO9WGEqCWnkXMHnwAsxJa6mLKwUNEOcSPjgrAHQpOG6n9n8d//AacHnmcadg/k
tZAi7BYHoOhf7WOjYcxf0uSO2ecglA9j2OsavA/o6E6FVwpdjQIDAQABo4IBxzCC
AcMwDwYDVR0TAQH/BAUwAwEB/zAOBgNVHQ8BAf8EBAMCAQYwHQYDVR0OBBYEFMTt
ckC30yvGpic5P/tbxJoIvhiCMEMGA1UdEQQ8MDqGJ2h0dHBzOi8vcm9ib3RpY3Mu
aW50LXJ0LmNvcnAuZG9vc2FuLmNvbYEPQ2VydEBkb29zYW4uY29tMB8GA1UdIwQY
MBaAFMTtckC30yvGpic5P/tbxJoIvhiCMEMGA1UdEgQ8MDqGJ2h0dHBzOi8vcm9i
b3RpY3MuaW50LXJ0LmNvcnAuZG9vc2FuLmNvbYEPQ2VydEBkb29zYW4uY29tMHMG
CCsGAQUFBwEBBGcwZTBjBggrBgEFBQcwAoZXaHR0cDovL2NhLmludC1ydC5jb3Jw
LmRvb3Nhbi5jb20vY2VydHMvZG9vc2FuLmNvbV9Sb290X0NlcnRpZmljYXRpb25f
QXV0aG9yaXR5LmNlcnQucGVtMGEGA1UdHwRaMFgwVqBUoFKGUGh0dHA6Ly9jYS5p
bnQtcnQuY29ycC5kb29zYW4uY29tL2NybC9kb29zYW4uY29tX1Jvb3RfQ2VydGlm
aWNhdGlvbl9BdXRob3JpdHkuY3JsMA0GCSqGSIb3DQEBCwUAA4ICAQCoRrOXZHOH
TKYJcrLCIAcYkNWWVnxzKc2HMZ5uel3yli1eDuI9erNoGFy44jy8TdUliT3plsvk
+sM2aw5ZP93ezuwoMS7XWR693APGMoWPJFvE4t+As8CLnh/b41cC4dXCM+K9nSKK
DxWASHRnWn9tH7AK0LZUbtYklfdt1dPltTbQqxNQ4rwO38LTw1V/T6tC/JrsoqKd
psSrcHs2IXo/sHsW8TSxNo50LK4jQTRacrwog4Uv9wdNPfzhJT+7rRiZBgu2Eapd
+LLNa93RsfZVqsezMNRgq+z83Y7cLz0GvhZ1oaZRjlF+EztibqCSnr+FS+TvwBnX
+9ZIb2m+ARgeQm1FijyRHXfU00L9CKjOLnLDR5taH7RKS3UG0vqstBG6vcnocpWa
TsS67OvaiHDvo5qBIvipIx4kJjYvdyjkaiAeHP+o4UNVox6sEh8hK89qYlEJtUu7
jVVgu4C5QRGU5PqKllFptiwrqgsExz/kefoEQ4zYfuexY24Ahq3zEZENAFRoLp5e
6NNin43vxeENf3Xm/K7qkgRJtEsKNcrc39pNJzf8CXul9MhY/zgu+GnS+bouC673
cOvyNtmbaHnmnzDymOZRlBj19BSnBHf5Rn7kfSQBuLCw1kkLwhpYl5NeeXU2x6x0
6j34MRnVsU1poT5onYbN7EM3vh4pi73hBw==
-----END CERTIFICATE-----
